; Function Attrs: mustprogress uwtable
define void @_ZN5boost9unit_test16results_reporter10set_formatENS0_13output_formatE(i32 noundef %0) local_unnamed_addr #3 personality ptr @__gxx_personality_v0 {
  %cond = icmp eq i32 %0, 2
  br i1 %cond, label %17, label %2

2:                                                ; preds = %1
  %3 = tail call noalias noundef nonnull dereferenceable(24) ptr @_Znwm(i64 noundef 24) #10
  store ptr getelementptr inbounds inrange(-16, 56) (i8, ptr @_ZTVN5boost9unit_test6output22plain_report_formatterE, i64 16), ptr %3, align 8, !tbaa !14
  %4 = getelementptr inbounds nuw i8, ptr %3, i64 8
  store i64 0, ptr %4, align 8, !tbaa !33
  %5 = getelementptr inbounds nuw i8, ptr %3, i64 16
  store i8 0, ptr %5, align 8, !tbaa !37
  %6 = load atomic i8, ptr @_ZGVZN5boost9unit_test16results_reporter12_GLOBAL__N_19s_rr_implEvE8the_inst acquire, align 8
  %7 = icmp eq i8 %6, 0
  br i1 %7, label %8, label %_ZN5boost9unit_test16results_reporter12_GLOBAL__N_19s_rr_implEv.exit.i, !prof !3

8:                                                ; preds = %2
  %9 = tail call i32 @__cxa_guard_acquire(ptr nonnull @_ZGVZN5boost9unit_test16results_reporter12_GLOBAL__N_19s_rr_implEvE8the_inst) #9
  %.not.i.i = icmp eq i32 %9, 0
  br i1 %.not.i.i, label %_ZN5boost9unit_test16results_reporter12_GLOBAL__N_19s_rr_implEv.exit.i, label %10

10:                                               ; preds = %8
  invoke fastcc void @_ZN5boost9unit_test16results_reporter12_GLOBAL__N_121results_reporter_implC2Ev()
          to label %11 unwind label %13

11:                                               ; preds = %10
  %12 = tail call i32 @__cxa_atexit(ptr nonnull @_ZN5boost9unit_test16results_reporter12_GLOBAL__N_121results_reporter_implD2Ev, ptr nonnull @_ZZN5boost9unit_test16results_reporter12_GLOBAL__N_19s_rr_implEvE8the_inst, ptr nonnull @__dso_handle) #9
  tail call void @__cxa_guard_release(ptr nonnull @_ZGVZN5boost9unit_test16results_reporter12_GLOBAL__N_19s_rr_implEvE8the_inst) #9
  br label %_ZN5boost9unit_test16results_reporter12_GLOBAL__N_19s_rr_implEv.exit.i

common.resume:                                    ; preds = %26, %13
  %common.resume.op = phi { ptr, i32 } [ %14, %13 ], [ %27, %26 ]
  tail call void @__cxa_guard_abort(ptr nonnull @_ZGVZN5boost9unit_test16results_reporter12_GLOBAL__N_19s_rr_implEvE8the_inst) #9
  resume { ptr, i32 } %common.resume.op

13:                                               ; preds = %10
  %14 = landingpad { ptr, i32 }
          cleanup
  br label %common.resume

_ZN5boost9unit_test16results_reporter12_GLOBAL__N_19s_rr_implEv.exit.i: ; preds = %11, %8, %2
  %15 = load ptr, ptr getelementptr inbounds nuw (i8, ptr @_ZZN5boost9unit_test16results_reporter12_GLOBAL__N_19s_rr_implEvE8the_inst, i64 32), align 8, !tbaa !38
  store ptr %3, ptr getelementptr inbounds nuw (i8, ptr @_ZZN5boost9unit_test16results_reporter12_GLOBAL__N_19s_rr_implEvE8the_inst, i64 32), align 8, !tbaa !38
  %16 = icmp eq ptr %15, null
  br i1 %16, label %_ZN5boost9unit_test16results_reporter10set_formatEPNS1_6formatE.exit, label %_ZN5boost9unit_test16results_reporter10set_formatEPNS1_6formatE.exit.sink.split

17:                                               ; preds = %1
  %18 = tail call noalias noundef nonnull dereferenceable(8) ptr @_Znwm(i64 noundef 8) #10
  store ptr getelementptr inbounds inrange(-16, 56) (i8, ptr @_ZTVN5boost9unit_test6output20xml_report_formatterE, i64 16), ptr %18, align 8, !tbaa !14
  %19 = load atomic i8, ptr @_ZGVZN5boost9unit_test16results_reporter12_GLOBAL__N_19s_rr_implEvE8the_inst acquire, align 8
  %20 = icmp eq i8 %19, 0
  br i1 %20, label %21, label %_ZN5boost9unit_test16results_reporter12_GLOBAL__N_19s_rr_implEv.exit.i1, !prof !3

21:                                               ; preds = %17
  %22 = tail call i32 @__cxa_guard_acquire(ptr nonnull @_ZGVZN5boost9unit_test16results_reporter12_GLOBAL__N_19s_rr_implEvE8the_inst) #9
  %.not.i.i2 = icmp eq i32 %22, 0
  br i1 %.not.i.i2, label %_ZN5boost9unit_test16results_reporter12_GLOBAL__N_19s_rr_implEv.exit.i1, label %23

23:                                               ; preds = %21
  invoke fastcc void @_ZN5boost9unit_test16results_reporter12_GLOBAL__N_121results_reporter_implC2Ev()
          to label %24 unwind label %26

24:                                               ; preds = %23
  %25 = tail call i32 @__cxa_atexit(ptr nonnull @_ZN5boost9unit_test16results_reporter12_GLOBAL__N_121results_reporter_implD2Ev, ptr nonnull @_ZZN5boost9unit_test16results_reporter12_GLOBAL__N_19s_rr_implEvE8the_inst, ptr nonnull @__dso_handle) #9
  tail call void @__cxa_guard_release(ptr nonnull @_ZGVZN5boost9unit_test16results_reporter12_GLOBAL__N_19s_rr_implEvE8the_inst) #9
  br label %_ZN5boost9unit_test16results_reporter12_GLOBAL__N_19s_rr_implEv.exit.i1

26:                                               ; preds = %23
  %27 = landingpad { ptr, i32 }
          cleanup
  br label %common.resume

_ZN5boost9unit_test16results_reporter12_GLOBAL__N_19s_rr_implEv.exit.i1: ; preds = %24, %21, %17
  %28 = load ptr, ptr getelementptr inbounds nuw (i8, ptr @_ZZN5boost9unit_test16results_reporter12_GLOBAL__N_19s_rr_implEvE8the_inst, i64 32), align 8, !tbaa !38
  store ptr %18, ptr getelementptr inbounds nuw (i8, ptr @_ZZN5boost9unit_test16results_reporter12_GLOBAL__N_19s_rr_implEvE8the_inst, i64 32), align 8, !tbaa !38
  %29 = icmp eq ptr %28, null
  br i1 %29, label %_ZN5boost9unit_test16results_reporter10set_formatEPNS1_6formatE.exit, label %_ZN5boost9unit_test16results_reporter10set_formatEPNS1_6formatE.exit.sink.split

_ZN5boost9unit_test16results_reporter10set_formatEPNS1_6formatE.exit.sink.split: ; preds = %_ZN5boost9unit_test16results_reporter12_GLOBAL__N_19s_rr_implEv.exit.i1, %_ZN5boost9unit_test16results_reporter12_GLOBAL__N_19s_rr_implEv.exit.i
  %.sink7 = phi ptr [ %15, %_ZN5boost9unit_test16results_reporter12_GLOBAL__N_19s_rr_implEv.exit.i ], [ %28, %_ZN5boost9unit_test16results_reporter12_GLOBAL__N_19s_rr_implEv.exit.i1 ]
  %30 = load ptr, ptr %.sink7, align 8, !tbaa !14
  %31 = getelementptr inbounds i8, ptr %30, i64 8
  %32 = load ptr, ptr %31, align 8
  tail call void %32(ptr noundef nonnull align 8 dereferenceable(8) %.sink7) #9
  br label %_ZN5boost9unit_test16results_reporter10set_formatEPNS1_6formatE.exit

_ZN5boost9unit_test16results_reporter10set_formatEPNS1_6formatE.exit: ; preds = %_ZN5boost9unit_test16results_reporter10set_formatEPNS1_6formatE.exit.sink.split, %_ZN5boost9unit_test16results_reporter12_GLOBAL__N_19s_rr_implEv.exit.i1, %_ZN5boost9unit_test16results_reporter12_GLOBAL__N_19s_rr_implEv.exit.i
  ret void
}